target datalayout = "e-m:e-p270:32:32-p271:32:32-p272:64:64-i64:64-i128:128-f80:128-n8:16:32:64-S128"
target triple = "x86_64-pc-linux-gnu"

%struct.Vec_Int_t_ = type { i32, i32, ptr }
%struct.Vec_Wec_t_ = type { i32, i32, ptr }

; Function Attrs: inlinehint nounwind uwtable
define internal void @Vec_IntClear(ptr noundef %0) #2 {
  %2 = alloca ptr, align 8
  store ptr %0, ptr %2, align 8, !tbaa !35
  %3 = load ptr, ptr %2, align 8, !tbaa !35
  %4 = getelementptr inbounds nuw %struct.Vec_Int_t_, ptr %3, i32 0, i32 1
  store i32 0, ptr %4, align 4, !tbaa !45
  ret void
}

; Function Attrs: inlinehint nounwind uwtable
define internal i32 @Vec_IntSize(ptr noundef %0) #2 {
  %2 = alloca ptr, align 8
  store ptr %0, ptr %2, align 8, !tbaa !35
  %3 = load ptr, ptr %2, align 8, !tbaa !35
  %4 = getelementptr inbounds nuw %struct.Vec_Int_t_, ptr %3, i32 0, i32 1
  %5 = load i32, ptr %4, align 4, !tbaa !45
  ret i32 %5
}

; Function Attrs: inlinehint nounwind uwtable
define internal ptr @Vec_WecEntry(ptr noundef %0, i32 noundef %1) #2 {
  %3 = alloca ptr, align 8
  %4 = alloca i32, align 4
  store ptr %0, ptr %3, align 8, !tbaa !91
  store i32 %1, ptr %4, align 4, !tbaa !10
  %5 = load ptr, ptr %3, align 8, !tbaa !91
  %6 = getelementptr inbounds nuw %struct.Vec_Wec_t_, ptr %5, i32 0, i32 2
  %7 = load ptr, ptr %6, align 8, !tbaa !94
  %8 = load i32, ptr %4, align 4, !tbaa !10
  %9 = sext i32 %8 to i64
  %10 = getelementptr inbounds %struct.Vec_Int_t_, ptr %7, i64 %9
  ret ptr %10
}

; Function Attrs: nounwind uwtable
define i32 @Min_ManRemoveItem(ptr noundef %0, i32 noundef %1, i32 noundef %2, i32 noundef %3) #0 {
  %5 = alloca ptr, align 8
  %6 = alloca i32, align 4
  %7 = alloca i32, align 4
  %8 = alloca i32, align 4
  %9 = alloca ptr, align 8
  %10 = alloca ptr, align 8
  %11 = alloca i32, align 4
  %12 = alloca %struct.Vec_Int_t_, align 8
  store ptr %0, ptr %5, align 8, !tbaa !91
  store i32 %1, ptr %6, align 4, !tbaa !10
  store i32 %2, ptr %7, align 4, !tbaa !10
  store i32 %3, ptr %8, align 4, !tbaa !10
  call void @llvm.lifetime.start.p0(i64 8, ptr %9) #13
  store ptr null, ptr %9, align 8, !tbaa !35
  call void @llvm.lifetime.start.p0(i64 8, ptr %10) #13
  %13 = load ptr, ptr %5, align 8, !tbaa !91
  %14 = load i32, ptr %6, align 4, !tbaa !10
  %15 = call ptr @Vec_WecEntry(ptr noundef %13, i32 noundef %14)
  store ptr %15, ptr %10, align 8, !tbaa !35
  call void @llvm.lifetime.start.p0(i64 4, ptr %11) #13
  %16 = load i32, ptr %8, align 4, !tbaa !10
  %17 = sub nsw i32 %16, 1
  store i32 %17, ptr %11, align 4, !tbaa !10
  br label %18

18:                                               ; preds = %34, %4
  %19 = load i32, ptr %11, align 4, !tbaa !10
  %20 = load i32, ptr %7, align 4, !tbaa !10
  %21 = icmp sge i32 %19, %20
  br i1 %21, label %22, label %26

22:                                               ; preds = %18
  %23 = load ptr, ptr %5, align 8, !tbaa !91
  %24 = load i32, ptr %11, align 4, !tbaa !10
  %25 = call ptr @Vec_WecEntry(ptr noundef %23, i32 noundef %24)
  store ptr %25, ptr %9, align 8, !tbaa !35
  br label %26

26:                                               ; preds = %22, %18
  %27 = phi i1 [ false, %18 ], [ true, %22 ]
  br i1 %27, label %28, label %37

28:                                               ; preds = %26
  %29 = load ptr, ptr %9, align 8, !tbaa !35
  %30 = call i32 @Vec_IntSize(ptr noundef %29)
  %31 = icmp sgt i32 %30, 0
  br i1 %31, label %32, label %33

32:                                               ; preds = %28
  br label %37

33:                                               ; preds = %28
  br label %34

34:                                               ; preds = %33
  %35 = load i32, ptr %11, align 4, !tbaa !10
  %36 = add nsw i32 %35, -1
  store i32 %36, ptr %11, align 4, !tbaa !10
  br label %18, !llvm.loop !92

37:                                               ; preds = %32, %26
  %38 = load ptr, ptr %10, align 8, !tbaa !35
  call void @Vec_IntClear(ptr noundef %38)
  %39 = load i32, ptr %6, align 4, !tbaa !10
  %40 = load i32, ptr %11, align 4, !tbaa !10
  %41 = icmp slt i32 %39, %40
  br i1 %41, label %42, label %47

42:                                               ; preds = %37
  call void @llvm.lifetime.start.p0(i64 16, ptr %12) #13
  %43 = load ptr, ptr %10, align 8, !tbaa !35
  call void @llvm.memcpy.p0.p0.i64(ptr align 8 %12, ptr align 8 %43, i64 16, i1 false), !tbaa.struct !93
  %44 = load ptr, ptr %10, align 8, !tbaa !35
  %45 = load ptr, ptr %9, align 8, !tbaa !35
  call void @llvm.memcpy.p0.p0.i64(ptr align 8 %44, ptr align 8 %45, i64 16, i1 false), !tbaa.struct !93
  %46 = load ptr, ptr %9, align 8, !tbaa !35
  call void @llvm.memcpy.p0.p0.i64(ptr align 8 %46, ptr align 8 %12, i64 16, i1 false), !tbaa.struct !93
  call void @llvm.lifetime.end.p0(i64 16, ptr %12) #13
  br label %47

47:                                               ; preds = %42, %37
  call void @llvm.lifetime.end.p0(i64 4, ptr %11) #13
  call void @llvm.lifetime.end.p0(i64 8, ptr %10) #13
  call void @llvm.lifetime.end.p0(i64 8, ptr %9) #13
  ret i32 -1
}