; Function Attrs: nofree norecurse nosync nounwind memory(readwrite, inaccessiblemem: none) uwtable
define noundef i32 @Min_ManRemoveItem(ptr noundef readonly captures(none) %0, i32 noundef %1, i32 noundef %2, i32 noundef %3) local_unnamed_addr #6 {
  %5 = alloca %struct.Vec_Int_t_, align 8
  %6 = getelementptr i8, ptr %0, i64 8
  %.val16 = load ptr, ptr %6, align 8, !tbaa !95
  %7 = sext i32 %1 to i64
  %8 = getelementptr inbounds %struct.Vec_Int_t_, ptr %.val16, i64 %7
  %.018 = add nsw i32 %3, -1
  %.not.not19 = icmp sgt i32 %3, %2
  br i1 %.not.not19, label %.lr.ph.preheader, label %.critedge

.lr.ph.preheader:                                 ; preds = %4
  %9 = sext i32 %3 to i64
  %10 = sext i32 %2 to i64
  %11 = add i32 %2, -1
  br label %.lr.ph

12:                                               ; preds = %.lr.ph
  %.not.not = icmp sgt i64 %indvars.iv, %10
  br i1 %.not.not, label %.lr.ph, label %.critedge, !llvm.loop !97

.lr.ph:                                           ; preds = %.lr.ph.preheader, %12
  %indvars.iv.in = phi i64 [ %9, %.lr.ph.preheader ], [ %indvars.iv, %12 ]
  %indvars.iv = add nsw i64 %indvars.iv.in, -1
  %13 = getelementptr inbounds %struct.Vec_Int_t_, ptr %.val16, i64 %indvars.iv
  %14 = getelementptr i8, ptr %13, i64 4
  %.val = load i32, ptr %14, align 4, !tbaa !30
  %15 = icmp sgt i32 %.val, 0
  br i1 %15, label %.critedge.loopexit.split.loop.exit26, label %12, !llvm.loop !97

.critedge.loopexit.split.loop.exit26:             ; preds = %.lr.ph
  %16 = trunc nsw i64 %indvars.iv to i32
  br label %.critedge

.critedge:                                        ; preds = %12, %.critedge.loopexit.split.loop.exit26, %4
  %.0.lcssa = phi i32 [ %.018, %4 ], [ %16, %.critedge.loopexit.split.loop.exit26 ], [ %11, %12 ]
  %.1 = phi ptr [ null, %4 ], [ %13, %.critedge.loopexit.split.loop.exit26 ], [ %13, %12 ]
  %17 = getelementptr inbounds nuw i8, ptr %8, i64 4
  store i32 0, ptr %17, align 4, !tbaa !30
  %18 = icmp slt i32 %1, %.0.lcssa
  br i1 %18, label %19, label %20

19:                                               ; preds = %.critedge
  call void @llvm.lifetime.start.p0(i64 16, ptr nonnull %5)
  call void @llvm.memcpy.p0.p0.i64(ptr noundef nonnull align 8 dereferenceable(16) %5, ptr noundef nonnull align 8 dereferenceable(16) %8, i64 16, i1 false), !tbaa.struct !98
  tail call void @llvm.memcpy.p0.p0.i64(ptr noundef nonnull align 8 dereferenceable(16) %8, ptr noundef nonnull align 8 dereferenceable(16) %.1, i64 16, i1 false), !tbaa.struct !98
  call void @llvm.memcpy.p0.p0.i64(ptr noundef nonnull align 8 dereferenceable(16) %.1, ptr noundef nonnull align 8 dereferenceable(16) %5, i64 16, i1 false), !tbaa.struct !98
  call void @llvm.lifetime.end.p0(i64 16, ptr nonnull %5)
  br label %20

20:                                               ; preds = %19, %.critedge
  ret i32 -1
}